(dp1
S'files'
p2
(dp3
S'manage'
p4
(dp5
S'index'
p6
(dp7
S'html_filename'
p8
S'manage.html'
p9
sS'name'
p10
g4
sS'nums'
p11
ccopy_reg
_reconstructor
p12
(ccoverage.results
Numbers
p13
c__builtin__
object
p14
NtRp15
(dp16
S'n_files'
p17
I1
sS'n_branches'
p18
I0
sS'n_statements'
p19
I6
sS'n_excluded'
p20
I0
sS'n_partial_branches'
p21
I0
sS'n_missing'
p22
I0
sS'n_missing_branches'
p23
I0
sbssS'hash'
p24
S"%+\xd8\xa5\x1dUS7'6-t\x8b\xf2\xbe\x14"
p25
ssS'rango_templatetags___init__'
p26
(dp27
g6
(dp28
g8
S'rango_templatetags___init__.html'
p29
sg10
S'rango/templatetags/__init__'
p30
sg11
g12
(g13
g14
NtRp31
(dp32
g17
I1
sg18
I0
sg19
I0
sg20
I0
sg21
I0
sg22
I0
sg23
I0
sbssg24
S'\xe5P\x11)^\xf4>1D.\x0e\x0b\xa1\xf8[+'
p33
ssS'rango_migrations___init__'
p34
(dp35
g6
(dp36
g8
S'rango_migrations___init__.html'
p37
sg10
S'rango/migrations/__init__'
p38
sg11
g12
(g13
g14
NtRp39
(dp40
g17
I1
sg18
I0
sg19
I0
sg20
I0
sg21
I0
sg22
I0
sg23
I0
sbssg24
S'\xca\xf5\x9f\x7f\x88\xdfa\x831|T\x1d\xbc}\xa5v'
p41
ssS'rango_migrations_0004_category_slug'
p42
(dp43
g6
(dp44
g8
S'rango_migrations_0004_category_slug.html'
p45
sg10
S'rango/migrations/0004_category_slug'
p46
sg11
g12
(g13
g14
NtRp47
(dp48
g17
I1
sg18
I0
sg19
I7
sg20
I0
sg21
I0
sg22
I0
sg23
I0
sbssg24
S'^`4F\xb2Q\xbf\x84B\xc0\x80Y\x0eA`\xbd'
p49
ssS'rango_migrations_0001_initial'
p50
(dp51
g6
(dp52
g8
S'rango_migrations_0001_initial.html'
p53
sg10
S'rango/migrations/0001_initial'
p54
sg11
g12
(g13
g14
NtRp55
(dp56
g17
I1
sg18
I0
sg19
I5
sg20
I0
sg21
I0
sg22
I0
sg23
I0
sbssg24
S'\xe7A\x10\x1b\xb7\x83B\x14Y\xafn\xd4\xd0LM-'
p57
ssS'rango___init__'
p58
(dp59
g6
(dp60
g8
S'rango___init__.html'
p61
sg10
S'rango/__init__'
p62
sg11
g12
(g13
g14
NtRp63
(dp64
g17
I1
sg18
I0
sg19
I0
sg20
I0
sg21
I0
sg22
I0
sg23
I0
sbssg24
S'\xca\xf5\x9f\x7f\x88\xdfa\x831|T\x1d\xbc}\xa5v'
p65
ssS'tango_with_django_project_wsgi'
p66
(dp67
g6
(dp68
g8
S'tango_with_django_project_wsgi.html'
p69
sg10
S'tango_with_django_project/wsgi'
p70
sg11
g12
(g13
g14
NtRp71
(dp72
g17
I1
sg18
I0
sg19
I4
sg20
I0
sg21
I0
sg22
I4
sg23
I0
sbssg24
S'\x05\xb7Ql\xdc\xb5<\xde\x10\x1bd\x80\xaatPY'
p73
ssS'rango_helpers'
p74
(dp75
g6
(dp76
g8
S'rango_helpers.html'
p77
sg10
S'rango/helpers'
p78
sg11
g12
(g13
g14
NtRp79
(dp80
g17
I1
sg18
I0
sg19
I9
sg20
I0
sg21
I0
sg22
I9
sg23
I0
sbssg24
S'\xdd\xe2~\xec\x06\x86)uH\xeb\xce\xf3\xb1Zr\xe1'
p81
ssS'tango_with_django_project___init__'
p82
(dp83
g6
(dp84
g8
S'tango_with_django_project___init__.html'
p85
sg10
S'tango_with_django_project/__init__'
p86
sg11
g12
(g13
g14
NtRp87
(dp88
g17
I1
sg18
I0
sg19
I0
sg20
I0
sg21
I0
sg22
I0
sg23
I0
sbssg24
S'\xca\xf5\x9f\x7f\x88\xdfa\x831|T\x1d\xbc}\xa5v'
p89
ssS'populate_rango'
p90
(dp91
g6
(dp92
g8
S'populate_rango.html'
p93
sg10
g90
sg11
g12
(g13
g14
NtRp94
(dp95
g17
I1
sg18
I0
sg19
I29
sg20
I0
sg21
I0
sg22
I29
sg23
I0
sbssg24
S'a\x12\xfc\xdb\xf5\x87o\x9c\xfeqO#\xcb\xef\xc4V'
p96
ssS'rango_bing_search'
p97
(dp98
g6
(dp99
g8
S'rango_bing_search.html'
p100
sg10
S'rango/bing_search'
p101
sg11
g12
(g13
g14
NtRp102
(dp103
g17
I1
sg18
I0
sg19
I26
sg20
I0
sg21
I0
sg22
I26
sg23
I0
sbssg24
S'\xa8"#\xd4\x1a\xfaG\xe0\x9ft\x8a\xa3\x0c]\x19\x8d'
p104
ssS'rango_templatetags_rango_extras'
p105
(dp106
g6
(dp107
g8
S'rango_templatetags_rango_extras.html'
p108
sg10
S'rango/templatetags/rango_extras'
p109
sg11
g12
(g13
g14
NtRp110
(dp111
g17
I1
sg18
I0
sg19
I6
sg20
I0
sg21
I0
sg22
I6
sg23
I0
sbssg24
S'\xac\xe4/g\xe8\xdb\x0c\xec\xac\x93\xe0\xff\xb3K\x89 '
p112
ssS'tango_with_django_project_urls'
p113
(dp114
g6
(dp115
g8
S'tango_with_django_project_urls.html'
p116
sg10
S'tango_with_django_project/urls'
p117
sg11
g12
(g13
g14
NtRp118
(dp119
g17
I1
sg18
I0
sg19
I10
sg20
I0
sg21
I0
sg22
I10
sg23
I0
sbssg24
S';G\xde\xaa\x1d\xe4\xe48\xdc}\tE\xd1\x19\xddl'
p120
ssS'rango_urls'
p121
(dp122
g6
(dp123
g8
S'rango_urls.html'
p124
sg10
S'rango/urls'
p125
sg11
g12
(g13
g14
NtRp126
(dp127
g17
I1
sg18
I0
sg19
I15
sg20
I0
sg21
I0
sg22
I15
sg23
I0
sbssg24
S'\xb8\xc1\xe3\x14\xf4^s\x9e\xb84X\xdaY\x9c9c'
p128
ssS'rango_forms'
p129
(dp130
g6
(dp131
g8
S'rango_forms.html'
p132
sg10
S'rango/forms'
p133
sg11
g12
(g13
g14
NtRp134
(dp135
g17
I1
sg18
I0
sg19
I34
sg20
I0
sg21
I0
sg22
I34
sg23
I0
sbssg24
S'\xe2\\\xa1\x88cAc\xdcv\xf4t\x193\x8c\x13+'
p136
ssS'rango_migrations_0005_userprofile'
p137
(dp138
g6
(dp139
g8
S'rango_migrations_0005_userprofile.html'
p140
sg10
S'rango/migrations/0005_userprofile'
p141
sg11
g12
(g13
g14
NtRp142
(dp143
g17
I1
sg18
I0
sg19
I6
sg20
I0
sg21
I0
sg22
I0
sg23
I0
sbssg24
S'\xb6&\x84-l\x82\xdd\xc0\x06\xc6\xfd\x01IF\x94E'
p144
ssS'rango_models'
p145
(dp146
g6
(dp147
g8
S'rango_models.html'
p148
sg10
S'rango/models'
p149
sg11
g12
(g13
g14
NtRp150
(dp151
g17
I1
sg18
I0
sg19
I26
sg20
I0
sg21
I0
sg22
I5
sg23
I0
sbssg24
S'\xedb\x92$NJ\xd7\xc50\xf5d\xf3g\x8dz\x15'
p152
ssS'rango_migrations_0003_auto_20150205_1201'
p153
(dp154
g6
(dp155
g8
S'rango_migrations_0003_auto_20150205_1201.html'
p156
sg10
S'rango/migrations/0003_auto_20150205_1201'
p157
sg11
g12
(g13
g14
NtRp158
(dp159
g17
I1
sg18
I0
sg19
I5
sg20
I0
sg21
I0
sg22
I0
sg23
I0
sbssg24
S"\x93\xa7\x18n\xad\xb4\xa2L\x05\xa6\x8b'8-\x0e]"
p160
ssS'rango_tests'
p161
(dp162
g6
(dp163
g8
S'rango_tests.html'
p164
sg10
S'rango/tests'
p165
sg11
g12
(g13
g14
NtRp166
(dp167
g17
I1
sg18
I0
sg19
I1
sg20
I0
sg21
I0
sg22
I0
sg23
I0
sbssg24
S'\x18\xa2\xf7\x81\x94\xb4%\xa4\xfaT\xb8\x84>\xb2\xf3b'
p168
ssS'rango_views'
p169
(dp170
g6
(dp171
g8
S'rango_views.html'
p172
sg10
S'rango/views'
p173
sg11
g12
(g13
g14
NtRp174
(dp175
g17
I1
sg18
I0
sg19
I158
sg20
I0
sg21
I0
sg22
I158
sg23
I0
sbssg24
S'*"\xf5U\xc2\x81l*\xe3B\xb3\xf3tE\xe4\x86'
p176
ssS'tango_with_django_project_settings'
p177
(dp178
g6
(dp179
g8
S'tango_with_django_project_settings.html'
p180
sg10
S'tango_with_django_project/settings'
p181
sg11
g12
(g13
g14
NtRp182
(dp183
g17
I1
sg18
I0
sg19
I29
sg20
I0
sg21
I0
sg22
I0
sg23
I0
sbssg24
S'\xcd\x9b\xc3A\xd3\x80q\x8d0\\*\x14\xbf\xf9\t1'
p184
ssS'rango_migrations_0002_auto_20150205_1155'
p185
(dp186
g6
(dp187
g8
S'rango_migrations_0002_auto_20150205_1155.html'
p188
sg10
S'rango/migrations/0002_auto_20150205_1155'
p189
sg11
g12
(g13
g14
NtRp190
(dp191
g17
I1
sg18
I0
sg19
I5
sg20
I0
sg21
I0
sg22
I0
sg23
I0
sbssg24
S'\xc1\xe9^*\xa0\x04\xb1o\rN\x86p\xe5(\xbb"'
p192
ssS'rango_admin'
p193
(dp194
g6
(dp195
g8
S'rango_admin.html'
p196
sg10
S'rango/admin'
p197
sg11
g12
(g13
g14
NtRp198
(dp199
g17
I1
sg18
I0
sg19
I7
sg20
I0
sg21
I0
sg22
I0
sg23
I0
sbssg24
S's\x87\xf4cI\x81[\xf9U|\xb7"\xe6\x1es\xdc'
p200
ssS'rango_keys'
p201
(dp202
g6
(dp203
g8
S'rango_keys.html'
p204
sg10
S'rango/keys'
p205
sg11
g12
(g13
g14
NtRp206
(dp207
g17
I1
sg18
I0
sg19
I1
sg20
I0
sg21
I0
sg22
I1
sg23
I0
sbssg24
S'\xf0\xb3#\xa2\xbb\x8fW\xfeXD\x8e\rf\x849c'
p208
sssS'version'
p209
S'3.7.1'
p210
sS'settings'
p211
S'\x98\xa8x\xfe"r\xb5K\x98\xb1N\\\x99\x9e\xf3\xe5'
p212
sS'format'
p213
I1
s.